; Function Attrs: null_pointer_is_valid sspstrong uwtable
define internal i32 @dissect_z3950_ElementInfo(i1 noundef zeroext %0, ptr noundef %1, i32 noundef %2, ptr noundef %3, ptr noundef %4, i32 noundef %5) #0 {
  %7 = getelementptr inbounds nuw i8, ptr %3, i64 16
  %8 = load ptr, ptr %7, align 8
  %9 = getelementptr inbounds nuw i8, ptr %8, i64 432
  %10 = load i32, ptr %9, align 8
  %11 = add i32 %10, 3
  store i32 %11, ptr %9, align 8
  %12 = load ptr, ptr %7, align 8
  tail call void @increment_dissection_depth(ptr noundef %12)
  %13 = load i32, ptr @ett_z3950_ElementInfo, align 4
  %14 = tail call i32 @dissect_ber_sequence(i1 noundef zeroext %0, ptr noundef %3, ptr noundef %4, ptr noundef %1, i32 noundef %2, ptr noundef nonnull @ElementInfo_sequence, i32 noundef %5, i32 noundef %13)
  %15 = load ptr, ptr %7, align 8
  %16 = getelementptr inbounds nuw i8, ptr %15, i64 432
  %17 = load i32, ptr %16, align 8
  %18 = add i32 %17, -3
  store i32 %18, ptr %16, align 8
  %19 = load ptr, ptr %7, align 8
  tail call void @decrement_dissection_depth(ptr noundef %19)
  ret i32 %14
}